; Function Attrs: nounwind uwtable
define dso_local i32 @add_unseen_recent_objects_to_traversal(ptr noundef %0, i64 noundef %1, ptr noundef %2, i32 noundef %3) local_unnamed_addr #0 {
  %5 = alloca %struct.recent_data, align 8
  call void @llvm.lifetime.start.p0(i64 80, ptr nonnull %5) #11
  store ptr %0, ptr %5, align 8, !tbaa !4
  %6 = getelementptr inbounds nuw i8, ptr %5, i64 8
  store i64 %1, ptr %6, align 8, !tbaa !16
  %7 = getelementptr inbounds nuw i8, ptr %5, i64 16
  store ptr %2, ptr %7, align 8, !tbaa !17
  %8 = getelementptr inbounds nuw i8, ptr %5, i64 24
  store i32 %3, ptr %8, align 8, !tbaa !18
  %9 = getelementptr inbounds nuw i8, ptr %5, i64 32
  call void @oidset_init(ptr noundef nonnull %9, i64 noundef 0) #11
  %10 = getelementptr inbounds nuw i8, ptr %5, i64 72
  store i32 0, ptr %10, align 8, !tbaa !19
  %11 = call i32 @for_each_loose_object(ptr noundef nonnull @add_recent_loose, ptr noundef nonnull %5, i32 noundef 1) #11
  %.not = icmp eq i32 %11, 0
  br i1 %.not, label %12, label %16

12:                                               ; preds = %4
  %.not11 = icmp eq i32 %3, 0
  %spec.select = select i1 %.not11, i32 5, i32 13
  %13 = getelementptr inbounds nuw i8, ptr %0, i64 24
  %14 = load ptr, ptr %13, align 8, !tbaa !20
  %15 = call i32 @for_each_packed_object(ptr noundef %14, ptr noundef nonnull @add_recent_packed, ptr noundef nonnull %5, i32 noundef %spec.select) #11
  br label %16

16:                                               ; preds = %4, %12
  %.0 = phi i32 [ %11, %4 ], [ %15, %12 ]
  call void @oidset_clear(ptr noundef nonnull %9) #11
  call void @llvm.lifetime.end.p0(i64 80, ptr nonnull %5) #11
  ret i32 %.0
}